target datalayout = "e-m:e-p270:32:32-p271:32:32-p272:64:64-i64:64-i128:128-f80:128-n8:16:32:64-S128"
target triple = "x86_64-pc-linux-gnu"

%struct.rb_red_blk_tree = type { ptr, ptr, ptr, ptr }
%struct.rb_red_blk_node = type { ptr, i32, ptr, ptr, ptr }

; Function Attrs: nounwind uwtable
define internal void @TreeDestHelper(ptr noundef %0, ptr noundef %1) #0 {
  %3 = alloca ptr, align 8
  %4 = alloca ptr, align 8
  %5 = alloca ptr, align 8
  store ptr %0, ptr %3, align 8, !tbaa !7
  store ptr %1, ptr %4, align 8, !tbaa !15
  call void @llvm.lifetime.start.p0(i64 8, ptr %5) #4
  %6 = load ptr, ptr %3, align 8, !tbaa !7
  %7 = getelementptr inbounds nuw %struct.rb_red_blk_tree, ptr %6, i32 0, i32 3
  %8 = load ptr, ptr %7, align 8, !tbaa !12
  store ptr %8, ptr %5, align 8, !tbaa !15
  %9 = load ptr, ptr %4, align 8, !tbaa !15
  %10 = load ptr, ptr %5, align 8, !tbaa !15
  %11 = icmp ne ptr %9, %10
  br i1 %11, label %12, label %28

12:                                               ; preds = %2
  %13 = load ptr, ptr %3, align 8, !tbaa !7
  %14 = load ptr, ptr %4, align 8, !tbaa !15
  %15 = getelementptr inbounds nuw %struct.rb_red_blk_node, ptr %14, i32 0, i32 2
  %16 = load ptr, ptr %15, align 8, !tbaa !19
  call void @TreeDestHelper(ptr noundef %13, ptr noundef %16)
  %17 = load ptr, ptr %3, align 8, !tbaa !7
  %18 = load ptr, ptr %4, align 8, !tbaa !15
  %19 = getelementptr inbounds nuw %struct.rb_red_blk_node, ptr %18, i32 0, i32 3
  %20 = load ptr, ptr %19, align 8, !tbaa !16
  call void @TreeDestHelper(ptr noundef %17, ptr noundef %20)
  %21 = load ptr, ptr %3, align 8, !tbaa !7
  %22 = getelementptr inbounds nuw %struct.rb_red_blk_tree, ptr %21, i32 0, i32 1
  %23 = load ptr, ptr %22, align 8, !tbaa !14
  %24 = load ptr, ptr %4, align 8, !tbaa !15
  %25 = getelementptr inbounds nuw %struct.rb_red_blk_node, ptr %24, i32 0, i32 0
  %26 = load ptr, ptr %25, align 8, !tbaa !22
  call void %23(ptr noundef %26)
  %27 = load ptr, ptr %4, align 8, !tbaa !15
  call void @free(ptr noundef %27) #4
  br label %28

28:                                               ; preds = %12, %2
  call void @llvm.lifetime.end.p0(i64 8, ptr %5) #4
  ret void
}