; Function Attrs: nounwind uwtable
define internal fastcc void @TreeDestHelper(ptr noundef %0, ptr noundef captures(address) %1) unnamed_addr #3 {
  %3 = getelementptr inbounds nuw i8, ptr %0, i64 24
  %4 = load ptr, ptr %3, align 8, !tbaa !10
  %.not = icmp eq ptr %1, %4
  br i1 %.not, label %common.ret10, label %5

common.ret10:                                     ; preds = %2, %5
  ret void

5:                                                ; preds = %2
  %6 = getelementptr inbounds nuw i8, ptr %1, i64 16
  %7 = load ptr, ptr %6, align 8, !tbaa !14
  tail call fastcc void @TreeDestHelper(ptr noundef nonnull %0, ptr noundef %7)
  %8 = getelementptr inbounds nuw i8, ptr %1, i64 24
  %9 = load ptr, ptr %8, align 8, !tbaa !11
  tail call fastcc void @TreeDestHelper(ptr noundef nonnull %0, ptr noundef %9)
  %10 = getelementptr inbounds nuw i8, ptr %0, i64 8
  %11 = load ptr, ptr %10, align 8, !tbaa !9
  %12 = load ptr, ptr %1, align 8, !tbaa !17
  tail call void %11(ptr noundef %12) #7
  tail call void @free(ptr noundef %1) #7
  br label %common.ret10
}